(dp0
S'vocab'
p1
(lp2
S'back'
p3
aS'bathroom'
p4
aS'bedroom'
p5
aS'daniel'
p6
aS'garden'
p7
aS'hallway'
p8
aS'is'
p9
aS'john'
p10
aS'journeyed'
p11
aS'kitchen'
p12
aS'mary'
p13
aS'moved'
p14
aS'office'
p15
aS'sandra'
p16
aS'the'
p17
aS'to'
p18
aS'travelled'
p19
aS'went'
p20
aS'where'
p21
asS'sentence_size'
p22
I6
sS'memory_size'
p23
I10
sS'w_idx'
p24
(dp25
g8
I6
sg4
I2
sg7
I5
sg11
I9
sg15
I13
sg9
I7
sg16
I14
sg14
I12
sg3
I1
sg20
I18
sg18
I16
sg6
I4
sg5
I3
sg17
I15
sg10
I8
sg21
I19
sg13
I11
sg19
I17
sg12
I10
ss.