(dp0
S'vocab'
p1
(lp2
S'a'
p3
aS'above'
p4
aS'afraid'
p5
aS'after'
p6
aS'afternoon'
p7
aS'afterwards'
p8
aS'and'
p9
aS'antoine'
p10
aS'apple'
p11
aS'apple,football'
p12
aS'apple,football,milk'
p13
aS'apple,milk'
p14
aS'apple,milk,football'
p15
aS'are'
p16
aS'back'
p17
aS'bathroom'
p18
aS'bedroom'
p19
aS'before'
p20
aS'below'
p21
aS'bernhard'
p22
aS'bigger'
p23
aS'bill'
p24
aS'blue'
p25
aS'bored'
p26
aS'box'
p27
aS'brian'
p28
aS'carrying'
p29
aS'cat'
p30
aS'cats'
p31
aS'chest'
p32
aS'chocolate'
p33
aS'chocolates'
p34
aS'cinema'
p35
aS'color'
p36
aS'container'
p37
aS'daniel'
p38
aS'did'
p39
aS'discarded'
p40
aS'do'
p41
aS'does'
p42
aS'down'
p43
aS'dropped'
p44
aS'e,e'
p45
aS'e,n'
p46
aS'e,s'
p47
aS'east'
p48
aS'either'
p49
aS'emily'
p50
aS'evening'
p51
aS'fit'
p52
aS'fits'
p53
aS'following'
p54
aS'football'
p55
aS'football,apple'
p56
aS'football,apple,milk'
p57
aS'football,milk'
p58
aS'fred'
p59
aS'frog'
p60
aS'from'
p61
aS'garden'
p62
aS'gave'
p63
aS'gertrude'
p64
aS'get'
p65
aS'give'
p66
aS'go'
p67
aS'got'
p68
aS'grabbed'
p69
aS'gray'
p70
aS'green'
p71
aS'greg'
p72
aS'hallway'
p73
aS'handed'
p74
aS'he'
p75
aS'how'
p76
aS'hungry'
p77
aS'in'
p78
aS'inside'
p79
aS'is'
p80
aS'jason'
p81
aS'jeff'
p82
aS'jessica'
p83
aS'john'
p84
aS'journeyed'
p85
aS'julie'
p86
aS'julius'
p87
aS'kitchen'
p88
aS'left'
p89
aS'lily'
p90
aS'lion'
p91
aS'longer'
p92
aS'many'
p93
aS'mary'
p94
aS'maybe'
p95
aS'mice'
p96
aS'milk'
p97
aS'milk,apple'
p98
aS'milk,football'
p99
aS'milk,football,apple'
p100
aS'morning'
p101
aS'mouse'
p102
aS'moved'
p103
aS'n,e'
p104
aS'n,n'
p105
aS'n,w'
p106
aS'no'
p107
aS'none'
p108
aS'north'
p109
aS'not'
p110
aS'nothing'
p111
aS'objects'
p112
aS'of'
p113
aS'office'
p114
aS'one'
p115
aS'or'
p116
aS'pajamas'
p117
aS'park'
p118
aS'passed'
p119
aS'picked'
p120
aS'pink'
p121
aS'put'
p122
aS'received'
p123
aS'rectangle'
p124
aS'red'
p125
aS'rhino'
p126
aS'right'
p127
aS's,e'
p128
aS's,s'
p129
aS's,w'
p130
aS'sandra'
p131
aS'school'
p132
aS'she'
p133
aS'sheep'
p134
aS'south'
p135
aS'sphere'
p136
aS'square'
p137
aS'suitcase'
p138
aS'sumit'
p139
aS'swan'
p140
aS'than'
p141
aS'that'
p142
aS'the'
p143
aS'then'
p144
aS'there'
p145
aS'they'
p146
aS'thirsty'
p147
aS'this'
p148
aS'three'
p149
aS'tired'
p150
aS'to'
p151
aS'took'
p152
aS'travelled'
p153
aS'triangle'
p154
aS'two'
p155
aS'up'
p156
aS'w,n'
p157
aS'w,s'
p158
aS'w,w'
p159
aS'was'
p160
aS'went'
p161
aS'west'
p162
aS'what'
p163
aS'where'
p164
aS'white'
p165
aS'who'
p166
aS'why'
p167
aS'will'
p168
aS'winona'
p169
aS'wolf'
p170
aS'wolves'
p171
aS'yann'
p172
aS'yellow'
p173
aS'yes'
p174
aS'yesterday'
p175
aS'you'
p176
asS'sentence_size'
p177
I11
sS'memory_size'
p178
I50
sS'w_idx'
p179
(dp180
g81
I79
sg114
I112
sg173
I171
sg19
I17
sg67
I65
sg174
I172
sg159
I157
sg97
I95
sg20
I18
sg69
I67
sg52
I50
sg76
I74
sg130
I128
sg129
I127
sg151
I149
sg38
I36
sg128
I126
sg48
I46
sg124
I122
sg63
I61
sg41
I39
sg51
I49
sg154
I152
sg58
I56
sg65
I63
sg57
I55
sg146
I144
sg110
I108
sg23
I21
sg70
I68
sg132
I130
sg11
I9
sg39
I37
sg101
I99
sg40
I38
sg148
I146
sg138
I136
sg49
I47
sg161
I159
sg164
I162
sg127
I125
sg166
I164
sg150
I148
sg145
I143
sg17
I15
sg91
I89
sg16
I14
sg120
I118
sg45
I43
sg117
I115
sg25
I23
sg163
I161
sg37
I35
sg126
I124
sg42
I40
sg22
I20
sg99
I97
sg4
I2
sg68
I66
sg50
I48
sg125
I123
sg133
I131
sg134
I132
sg6
I4
sg83
I81
sg113
I111
sg59
I57
sg169
I167
sg165
I163
sg112
I110
sg122
I120
sg88
I86
sg27
I25
sg123
I121
sg85
I83
sg56
I54
sg170
I168
sg7
I5
sg116
I114
sg135
I133
sg144
I142
sg34
I32
sg8
I6
sg82
I80
sg36
I34
sg86
I84
sg115
I113
sg43
I41
sg111
I109
sg105
I103
sg137
I135
sg64
I62
sg18
I16
sg61
I59
sg162
I160
sg66
I64
sg149
I147
sg60
I58
sg31
I29
sg119
I117
sg13
I11
sg153
I151
sg84
I82
sg160
I158
sg94
I92
sg12
I10
sg109
I107
sg106
I104
sg142
I140
sg118
I116
sg152
I150
sg33
I31
sg29
I27
sg35
I33
sg96
I94
sg141
I139
sg75
I73
sg108
I106
sg26
I24
sg46
I44
sg140
I138
sg87
I85
sg79
I77
sg24
I22
sg156
I154
sg30
I28
sg168
I166
sg21
I19
sg72
I70
sg93
I91
sg54
I52
sg47
I45
sg9
I7
sg147
I145
sg15
I13
sg80
I78
sg103
I101
sg172
I170
sg136
I134
sg44
I42
sg78
I76
sg102
I100
sg62
I60
sg121
I119
sg171
I169
sg5
I3
sg107
I105
sg158
I156
sg74
I72
sg10
I8
sg28
I26
sg32
I30
sg157
I155
sg176
I174
sg90
I88
sg73
I71
sg55
I53
sg175
I173
sg155
I153
sg131
I129
sg53
I51
sg100
I98
sg167
I165
sg98
I96
sg3
I1
sg92
I90
sg95
I93
sg77
I75
sg14
I12
sg139
I137
sg71
I69
sg104
I102
sg143
I141
sg89
I87
ss.