(lp0
V.
p1
aV?
p2
aVback
p3
aVbathroom
p4
aVbedroom
p5
aVdaniel
p6
aVgarden
p7
aVhallway
p8
aVis
p9
aVjohn
p10
aVjourneyed
p11
aVkitchen
p12
aVmary
p13
aVmoved
p14
aVoffice
p15
aVsandra
p16
aVthe
p17
aVto
p18
aVtravelled
p19
aVwent
p20
aVwhere
p21
a.